target datalayout = "e-m:e-p270:32:32-p271:32:32-p272:64:64-i64:64-i128:128-f80:128-n8:16:32:64-S128"
target triple = "x86_64-pc-linux-gnu"

%class.TimerGroup = type { %"class.std::vector", %"class.std::__cxx11::basic_string" }
%"class.std::vector" = type { %"struct.std::_Vector_base" }
%"struct.std::_Vector_base" = type { %"struct.std::_Vector_base<Timer, std::allocator<Timer>>::_Vector_impl" }
%"struct.std::_Vector_base<Timer, std::allocator<Timer>>::_Vector_impl" = type { %"struct.std::_Vector_base<Timer, std::allocator<Timer>>::_Vector_impl_data" }
%"struct.std::_Vector_base<Timer, std::allocator<Timer>>::_Vector_impl_data" = type { ptr, ptr, ptr }
%"class.std::__cxx11::basic_string" = type { %"struct.std::__cxx11::basic_string<char>::_Alloc_hider", i64, %union.anon }
%"struct.std::__cxx11::basic_string<char>::_Alloc_hider" = type { ptr }
%union.anon = type { i64, [8 x i8] }
%class.Timer = type { %"class.std::__cxx11::basic_string", i32, i64, i64, %"class.std::chrono::time_point", i64 }
%"class.std::chrono::time_point" = type { %"class.std::chrono::duration" }
%"class.std::chrono::duration" = type { i64 }

; Function Attrs: mustprogress nounwind uwtable
define linkonce_odr noundef nonnull align 8 dereferenceable(72) ptr @_ZNSt6vectorI5TimerSaIS0_EEixEm(ptr noundef nonnull align 8 dereferenceable(24) %0, i64 noundef %1) #5 comdat align 2 {
  %3 = alloca ptr, align 8
  %4 = alloca i64, align 8
  store ptr %0, ptr %3, align 8
  store i64 %1, ptr %4, align 8
  %5 = load ptr, ptr %3, align 8
  %6 = getelementptr inbounds nuw %"struct.std::_Vector_base", ptr %5, i32 0, i32 0
  %7 = getelementptr inbounds nuw %"struct.std::_Vector_base<Timer, std::allocator<Timer>>::_Vector_impl_data", ptr %6, i32 0, i32 0
  %8 = load ptr, ptr %7, align 8
  %9 = load i64, ptr %4, align 8
  %10 = getelementptr inbounds %class.Timer, ptr %8, i64 %9
  ret ptr %10
}

; Function Attrs: mustprogress nounwind uwtable
define linkonce_odr noundef i64 @_ZNKSt6vectorI5TimerSaIS0_EE4sizeEv(ptr noundef nonnull align 8 dereferenceable(24) %0) #5 comdat align 2 {
  %2 = alloca ptr, align 8
  store ptr %0, ptr %2, align 8
  %3 = load ptr, ptr %2, align 8
  %4 = getelementptr inbounds nuw %"struct.std::_Vector_base", ptr %3, i32 0, i32 0
  %5 = getelementptr inbounds nuw %"struct.std::_Vector_base<Timer, std::allocator<Timer>>::_Vector_impl_data", ptr %4, i32 0, i32 1
  %6 = load ptr, ptr %5, align 8
  %7 = getelementptr inbounds nuw %"struct.std::_Vector_base", ptr %3, i32 0, i32 0
  %8 = getelementptr inbounds nuw %"struct.std::_Vector_base<Timer, std::allocator<Timer>>::_Vector_impl_data", ptr %7, i32 0, i32 0
  %9 = load ptr, ptr %8, align 8
  %10 = ptrtoint ptr %6 to i64
  %11 = ptrtoint ptr %9 to i64
  %12 = sub i64 %10, %11
  %13 = sdiv exact i64 %12, 72
  ret i64 %13
}

; Function Attrs: mustprogress uwtable
define void @_ZN10TimerGroup13DifferentiateEv(ptr noundef nonnull align 8 dereferenceable(56) %0) #4 align 2 {
  %2 = alloca ptr, align 8
  %3 = alloca i32, align 4
  %4 = alloca i32, align 4
  store ptr %0, ptr %2, align 8
  %5 = load ptr, ptr %2, align 8
  store i32 0, ptr %3, align 4
  br label %6

6:                                                ; preds = %30, %1
  %7 = load i32, ptr %3, align 4
  %8 = zext i32 %7 to i64
  %9 = getelementptr inbounds nuw %class.TimerGroup, ptr %5, i32 0, i32 0
  %10 = call noundef i64 @_ZNKSt6vectorI5TimerSaIS0_EE4sizeEv(ptr noundef nonnull align 8 dereferenceable(24) %9) #3
  %11 = sub i64 %10, 1
  %12 = icmp ult i64 %8, %11
  br i1 %12, label %13, label %33

13:                                               ; preds = %6
  %14 = getelementptr inbounds nuw %class.TimerGroup, ptr %5, i32 0, i32 0
  %15 = call noundef i64 @_ZNKSt6vectorI5TimerSaIS0_EE4sizeEv(ptr noundef nonnull align 8 dereferenceable(24) %14) #3
  %16 = sub i64 %15, 1
  %17 = load i32, ptr %3, align 4
  %18 = zext i32 %17 to i64
  %19 = sub i64 %16, %18
  %20 = trunc i64 %19 to i32
  store i32 %20, ptr %4, align 4
  %21 = getelementptr inbounds nuw %class.TimerGroup, ptr %5, i32 0, i32 0
  %22 = load i32, ptr %4, align 4
  %23 = sub i32 %22, 1
  %24 = zext i32 %23 to i64
  %25 = call noundef nonnull align 8 dereferenceable(72) ptr @_ZNSt6vectorI5TimerSaIS0_EEixEm(ptr noundef nonnull align 8 dereferenceable(24) %21, i64 noundef %24) #3
  %26 = getelementptr inbounds nuw %class.TimerGroup, ptr %5, i32 0, i32 0
  %27 = load i32, ptr %4, align 4
  %28 = zext i32 %27 to i64
  %29 = call noundef nonnull align 8 dereferenceable(72) ptr @_ZNSt6vectorI5TimerSaIS0_EEixEm(ptr noundef nonnull align 8 dereferenceable(24) %26, i64 noundef %28) #3
  call void @_ZN5TimermIERKS_(ptr noundef nonnull align 8 dereferenceable(72) %29, ptr noundef nonnull align 8 dereferenceable(72) %25)
  br label %30

30:                                               ; preds = %13
  %31 = load i32, ptr %3, align 4
  %32 = add i32 %31, 1
  store i32 %32, ptr %3, align 4
  br label %6, !llvm.loop !9

33:                                               ; preds = %6
  ret void
}