; Function Attrs: mustprogress uwtable
define void @_ZN10TimerGroup13DifferentiateEv(ptr nocapture noundef nonnull readonly align 8 dereferenceable(56) %0) local_unnamed_addr #3 align 2 {
  %2 = getelementptr inbounds nuw i8, ptr %0, i64 8
  %3 = load ptr, ptr %2, align 8
  %4 = load ptr, ptr %0, align 8
  %5 = ptrtoint ptr %3 to i64
  %6 = ptrtoint ptr %4 to i64
  %7 = sub i64 %5, %6
  %.not = icmp eq i64 %7, 72
  br i1 %.not, label %._crit_edge, label %.lr.ph.preheader

.lr.ph.preheader:                                 ; preds = %1
  %8 = sdiv exact i64 %7, 72
  br label %.lr.ph

.lr.ph:                                           ; preds = %.lr.ph.preheader, %.lr.ph
  %9 = phi i64 [ %26, %.lr.ph ], [ %8, %.lr.ph.preheader ]
  %10 = phi ptr [ %22, %.lr.ph ], [ %4, %.lr.ph.preheader ]
  %11 = phi i64 [ %20, %.lr.ph ], [ 0, %.lr.ph.preheader ]
  %.06 = phi i32 [ %19, %.lr.ph ], [ 0, %.lr.ph.preheader ]
  %12 = xor i64 %11, -1
  %13 = add nsw i64 %9, %12
  %14 = add nsw i64 %13, 4294967295
  %15 = and i64 %14, 4294967295
  %16 = getelementptr inbounds %class.Timer, ptr %10, i64 %15
  %17 = and i64 %13, 4294967295
  %18 = getelementptr inbounds %class.Timer, ptr %10, i64 %17
  tail call void @_ZN5TimermIERKS_(ptr noundef nonnull align 8 dereferenceable(72) %18, ptr noundef nonnull align 8 dereferenceable(72) %16)
  %19 = add i32 %.06, 1
  %20 = zext i32 %19 to i64
  %21 = load ptr, ptr %2, align 8
  %22 = load ptr, ptr %0, align 8
  %23 = ptrtoint ptr %21 to i64
  %24 = ptrtoint ptr %22 to i64
  %25 = sub i64 %23, %24
  %26 = sdiv exact i64 %25, 72
  %27 = add nsw i64 %26, -1
  %28 = icmp ugt i64 %27, %20
  br i1 %28, label %.lr.ph, label %._crit_edge, !llvm.loop !15

._crit_edge:                                      ; preds = %.lr.ph, %1
  ret void
}